target datalayout = "e-m:e-p270:32:32-p271:32:32-p272:64:64-i64:64-i128:128-f80:128-n8:16:32:64-S128"
target triple = "x86_64-pc-linux-gnu"

%struct.AV1Common = type { %struct.CurrentFrame, %struct.aom_internal_error_info, i32, i32, i32, i32, i32, i32, i8, i8, [33 x i32], i32, ptr, ptr, [8 x i32], %struct.scale_factors, [8 x %struct.scale_factors], [8 x ptr], i32, i32, i32, %struct.FeatureFlags, %struct.CommonModeInfoParams, %struct.CommonQuantParams, %struct.segmentation, ptr, [8 x i8], %struct.loop_filter_info_n, %struct.loopfilter, [3 x %struct.RestorationInfo], ptr, ptr, %struct.yv12_buffer_config, %struct.CdefInfo, %struct.aom_film_grain_t, %struct.DeltaQInfo, [8 x %struct.WarpedMotionParams], %struct.SequenceHeader, ptr, ptr, %struct.CommonTileParams, ptr, %struct.CommonContexts, i32, [8 x i32], ptr, i32, [8 x i32], [8 x i8], i32, i32, i32, i32 }
%struct.CurrentFrame = type { i8, i8, i32, i32, i32, %struct.SkipModeInfo, i32, i32 }
%struct.SkipModeInfo = type { i32, i32, i32, i32 }
%struct.aom_internal_error_info = type { i32, i32, [200 x i8], i32, [1 x %struct.__jmp_buf_tag] }
%struct.__jmp_buf_tag = type { [8 x i64], i32, %struct.__sigset_t }
%struct.__sigset_t = type { [16 x i64] }
%struct.scale_factors = type { i32, i32, i32, i32, ptr, ptr }
%struct.FeatureFlags = type { i8, i8, i8, i8, i8, i8, i8, i8, i8, i8, i8, i8, i8, i8, i32, i32, i8 }
%struct.CommonModeInfoParams = type { i32, i32, i32, i32, i32, ptr, i32, i32, i8, ptr, i32, i32, ptr, ptr, ptr, ptr }
%struct.CommonQuantParams = type { i32, i32, i32, i32, i32, i32, [8 x [2 x i16]], [8 x [2 x i16]], [8 x [2 x i16]], [16 x [3 x [19 x ptr]]], [16 x [3 x [19 x ptr]]], [8 x [19 x ptr]], [8 x [19 x ptr]], [8 x [19 x ptr]], i8, i32, i32, i32 }
%struct.segmentation = type { i8, i8, i8, i8, [8 x [8 x i16]], [8 x i32], i32, i8 }
%struct.loop_filter_info_n = type { [64 x %struct.loop_filter_thresh], [3 x [8 x [2 x [8 x [2 x i8]]]]] }
%struct.loop_filter_thresh = type { [16 x i8], [16 x i8], [16 x i8] }
%struct.loopfilter = type { [2 x i32], i32, i32, i32, i8, i8, [8 x i8], [2 x i8], i32 }
%struct.RestorationInfo = type { i32, i32, i32, i32, i32, ptr, %struct.RestorationStripeBoundaries, i32 }
%struct.RestorationStripeBoundaries = type { ptr, ptr, i32, i32 }
%struct.yv12_buffer_config = type { %union.anon, %union.anon.0, %union.anon.2, %union.anon.4, %union.anon.6, %union.anon.8, i32, [3 x ptr], ptr, i32, ptr, i64, i32, i64, i32, i32, i32, i32, i32, i32, i8, i32, i32, i32, i32, i32, i32, ptr }
%union.anon = type { %struct.anon }
%struct.anon = type { i32, i32 }
%union.anon.0 = type { %struct.anon.1 }
%struct.anon.1 = type { i32, i32 }
%union.anon.2 = type { %struct.anon.3 }
%struct.anon.3 = type { i32, i32 }
%union.anon.4 = type { %struct.anon.5 }
%struct.anon.5 = type { i32, i32 }
%union.anon.6 = type { %struct.anon.7 }
%struct.anon.7 = type { i32, i32 }
%union.anon.8 = type { %struct.anon.9 }
%struct.anon.9 = type { ptr, ptr, ptr }
%struct.CdefInfo = type { i32, i32, [16 x i32], [16 x i32], i32 }
%struct.aom_film_grain_t = type { i32, i32, [14 x [2 x i32]], i32, [10 x [2 x i32]], i32, [10 x [2 x i32]], i32, i32, i32, [24 x i32], [25 x i32], [25 x i32], i32, i32, i32, i32, i32, i32, i32, i32, i32, i32, i32, i32, i16 }
%struct.DeltaQInfo = type { i32, i32, i32, i32, i32 }
%struct.WarpedMotionParams = type { [8 x i32], i16, i16, i16, i16, i8, i8 }
%struct.SequenceHeader = type { i32, i32, i32, i32, i8, i32, i32, i8, i32, i32, %struct.OrderHintInfo, i8, i8, i8, i8, i8, i8, i8, i8, i8, i8, i8, i8, i8, i8, i32, i8, i8, i32, i32, i32, i32, i32, i32, i32, i8, i8, i32, [32 x i32], i32, %struct.aom_timing, i8, %struct.aom_dec_model_info, i8, [32 x i8], [32 x i8], [33 x %struct.aom_dec_model_op_parameters] }
%struct.OrderHintInfo = type { i32, i32, i32, i32 }
%struct.aom_timing = type { i32, i32, i32, i32 }
%struct.aom_dec_model_info = type { i32, i32, i32, i32 }
%struct.aom_dec_model_op_parameters = type { i32, i64, i64, i32, i32, i32, i32, i32 }
%struct.CommonTileParams = type { i32, i32, i32, i32, i32, i32, i32, i32, i32, i32, i32, i32, i32, i32, i32, [65 x i32], [65 x i32], i32, i32 }
%struct.CommonContexts = type { ptr, [3 x ptr], ptr, i32, i32, i32 }
%struct.frame_contexts = type { [5 x [13 x [3 x i16]]], [5 x [2 x [9 x [3 x i16]]]], [2 x [3 x [3 x i16]]], [2 x [2 x [6 x i16]]], [2 x [2 x [7 x i16]]], [2 x [2 x [8 x i16]]], [2 x [2 x [9 x i16]]], [2 x [2 x [10 x i16]]], [2 x [2 x [11 x i16]]], [2 x [2 x [12 x i16]]], [5 x [2 x [4 x [4 x i16]]]], [5 x [2 x [42 x [5 x i16]]]], [5 x [2 x [21 x [5 x i16]]]], [6 x [3 x i16]], [2 x [3 x i16]], [6 x [3 x i16]], [3 x [3 x i16]], [8 x [9 x i16]], [22 x [3 x i16]], [22 x [17 x i16]], [4 x [3 x i16]], [22 x [3 x i16]], [4 x [5 x i16]], [22 x [4 x i16]], [22 x [3 x i16]], [7 x [8 x i16]], [7 x [8 x i16]], [7 x [5 x [9 x i16]]], [7 x [5 x [9 x i16]]], [7 x [3 x [3 x i16]]], [2 x [3 x i16]], [5 x [3 x i16]], [3 x [6 x [3 x i16]]], [5 x [3 x i16]], [3 x [3 x [3 x i16]]], [3 x [3 x [3 x i16]]], [3 x [2 x [3 x i16]]], [21 x [3 x i16]], [6 x [3 x i16]], [6 x [3 x i16]], [3 x [3 x i16]], [3 x [3 x i16]], [4 x [3 x i16]], %struct.nmv_context, %struct.nmv_context, [3 x i16], %struct.segmentation_probs, [22 x [3 x i16]], [6 x i16], [4 x i16], [3 x i16], [3 x i16], [4 x [14 x i16]], [2 x [13 x [15 x i16]]], [20 x [11 x i16]], [16 x [4 x i16]], [5 x [5 x [14 x i16]]], [8 x [8 x i16]], [4 x [3 x [4 x i16]]], [5 x i16], [4 x [5 x i16]], [5 x i16], [3 x [4 x [13 x [17 x i16]]]], [4 x [4 x [17 x i16]]], [9 x i16], [6 x [17 x i16]], i32 }
%struct.nmv_context = type { [5 x i16], [2 x %struct.nmv_component] }
%struct.nmv_component = type { [12 x i16], [2 x [5 x i16]], [5 x i16], [3 x i16], [3 x i16], [3 x i16], [3 x i16], [10 x [3 x i16]] }
%struct.segmentation_probs = type { [9 x i16], [3 x [3 x i16]], [3 x [9 x i16]] }

; Function Attrs: nounwind uwtable
define internal i32 @get_q_ctx(i32 noundef %0) #0 {
  %2 = alloca i32, align 4
  %3 = alloca i32, align 4
  store i32 %0, ptr %3, align 4
  %4 = load i32, ptr %3, align 4
  %5 = icmp sle i32 %4, 20
  br i1 %5, label %6, label %7

6:                                                ; preds = %1
  store i32 0, ptr %2, align 4
  br label %16

7:                                                ; preds = %1
  %8 = load i32, ptr %3, align 4
  %9 = icmp sle i32 %8, 60
  br i1 %9, label %10, label %11

10:                                               ; preds = %7
  store i32 1, ptr %2, align 4
  br label %16

11:                                               ; preds = %7
  %12 = load i32, ptr %3, align 4
  %13 = icmp sle i32 %12, 120
  br i1 %13, label %14, label %15

14:                                               ; preds = %11
  store i32 2, ptr %2, align 4
  br label %16

15:                                               ; preds = %11
  store i32 3, ptr %2, align 4
  br label %16

16:                                               ; preds = %15, %14, %10, %6
  %17 = load i32, ptr %2, align 4
  ret i32 %17
}

; Function Attrs: nounwind uwtable
define hidden void @av1_default_coef_probs(ptr noundef %0) #0 {
  %2 = alloca ptr, align 8
  %3 = alloca i32, align 4
  store ptr %0, ptr %2, align 8
  %4 = load ptr, ptr %2, align 8
  %5 = getelementptr inbounds nuw %struct.AV1Common, ptr %4, i32 0, i32 23
  %6 = getelementptr inbounds nuw %struct.CommonQuantParams, ptr %5, i32 0, i32 0
  %7 = load i32, ptr %6, align 8
  %8 = call i32 @get_q_ctx(i32 noundef %7)
  store i32 %8, ptr %3, align 4
  %9 = load ptr, ptr %2, align 8
  %10 = getelementptr inbounds nuw %struct.AV1Common, ptr %9, i32 0, i32 38
  %11 = load ptr, ptr %10, align 16
  %12 = getelementptr inbounds nuw %struct.frame_contexts, ptr %11, i32 0, i32 0
  %13 = getelementptr inbounds [5 x [13 x [3 x i16]]], ptr %12, i64 0, i64 0
  %14 = load i32, ptr %3, align 4
  %15 = sext i32 %14 to i64
  %16 = getelementptr inbounds [4 x [5 x [13 x [3 x i16]]]], ptr @av1_default_txb_skip_cdfs, i64 0, i64 %15
  %17 = getelementptr inbounds [5 x [13 x [3 x i16]]], ptr %16, i64 0, i64 0
  call void @llvm.memcpy.p0.p0.i64(ptr align 4 %13, ptr align 2 %17, i64 390, i1 false)
  %18 = load ptr, ptr %2, align 8
  %19 = getelementptr inbounds nuw %struct.AV1Common, ptr %18, i32 0, i32 38
  %20 = load ptr, ptr %19, align 16
  %21 = getelementptr inbounds nuw %struct.frame_contexts, ptr %20, i32 0, i32 1
  %22 = getelementptr inbounds [5 x [2 x [9 x [3 x i16]]]], ptr %21, i64 0, i64 0
  %23 = load i32, ptr %3, align 4
  %24 = sext i32 %23 to i64
  %25 = getelementptr inbounds [4 x [5 x [2 x [9 x [3 x i16]]]]], ptr @av1_default_eob_extra_cdfs, i64 0, i64 %24
  %26 = getelementptr inbounds [5 x [2 x [9 x [3 x i16]]]], ptr %25, i64 0, i64 0
  call void @llvm.memcpy.p0.p0.i64(ptr align 2 %22, ptr align 4 %26, i64 540, i1 false)
  %27 = load ptr, ptr %2, align 8
  %28 = getelementptr inbounds nuw %struct.AV1Common, ptr %27, i32 0, i32 38
  %29 = load ptr, ptr %28, align 16
  %30 = getelementptr inbounds nuw %struct.frame_contexts, ptr %29, i32 0, i32 2
  %31 = getelementptr inbounds [2 x [3 x [3 x i16]]], ptr %30, i64 0, i64 0
  %32 = load i32, ptr %3, align 4
  %33 = sext i32 %32 to i64
  %34 = getelementptr inbounds [4 x [2 x [3 x [3 x i16]]]], ptr @av1_default_dc_sign_cdfs, i64 0, i64 %33
  %35 = getelementptr inbounds [2 x [3 x [3 x i16]]], ptr %34, i64 0, i64 0
  call void @llvm.memcpy.p0.p0.i64(ptr align 2 %31, ptr align 4 %35, i64 36, i1 false)
  %36 = load ptr, ptr %2, align 8
  %37 = getelementptr inbounds nuw %struct.AV1Common, ptr %36, i32 0, i32 38
  %38 = load ptr, ptr %37, align 16
  %39 = getelementptr inbounds nuw %struct.frame_contexts, ptr %38, i32 0, i32 12
  %40 = getelementptr inbounds [5 x [2 x [21 x [5 x i16]]]], ptr %39, i64 0, i64 0
  %41 = load i32, ptr %3, align 4
  %42 = sext i32 %41 to i64
  %43 = getelementptr inbounds [4 x [5 x [2 x [21 x [5 x i16]]]]], ptr @av1_default_coeff_lps_multi_cdfs, i64 0, i64 %42
  %44 = getelementptr inbounds [5 x [2 x [21 x [5 x i16]]]], ptr %43, i64 0, i64 0
  call void @llvm.memcpy.p0.p0.i64(ptr align 2 %40, ptr align 4 %44, i64 2100, i1 false)
  %45 = load ptr, ptr %2, align 8
  %46 = getelementptr inbounds nuw %struct.AV1Common, ptr %45, i32 0, i32 38
  %47 = load ptr, ptr %46, align 16
  %48 = getelementptr inbounds nuw %struct.frame_contexts, ptr %47, i32 0, i32 11
  %49 = getelementptr inbounds [5 x [2 x [42 x [5 x i16]]]], ptr %48, i64 0, i64 0
  %50 = load i32, ptr %3, align 4
  %51 = sext i32 %50 to i64
  %52 = getelementptr inbounds [4 x [5 x [2 x [42 x [5 x i16]]]]], ptr @av1_default_coeff_base_multi_cdfs, i64 0, i64 %51
  %53 = getelementptr inbounds [5 x [2 x [42 x [5 x i16]]]], ptr %52, i64 0, i64 0
  call void @llvm.memcpy.p0.p0.i64(ptr align 2 %49, ptr align 8 %53, i64 4200, i1 false)
  %54 = load ptr, ptr %2, align 8
  %55 = getelementptr inbounds nuw %struct.AV1Common, ptr %54, i32 0, i32 38
  %56 = load ptr, ptr %55, align 16
  %57 = getelementptr inbounds nuw %struct.frame_contexts, ptr %56, i32 0, i32 10
  %58 = getelementptr inbounds [5 x [2 x [4 x [4 x i16]]]], ptr %57, i64 0, i64 0
  %59 = load i32, ptr %3, align 4
  %60 = sext i32 %59 to i64
  %61 = getelementptr inbounds [4 x [5 x [2 x [4 x [4 x i16]]]]], ptr @av1_default_coeff_base_eob_multi_cdfs, i64 0, i64 %60
  %62 = getelementptr inbounds [5 x [2 x [4 x [4 x i16]]]], ptr %61, i64 0, i64 0
  call void @llvm.memcpy.p0.p0.i64(ptr align 2 %58, ptr align 16 %62, i64 320, i1 false)
  %63 = load ptr, ptr %2, align 8
  %64 = getelementptr inbounds nuw %struct.AV1Common, ptr %63, i32 0, i32 38
  %65 = load ptr, ptr %64, align 16
  %66 = getelementptr inbounds nuw %struct.frame_contexts, ptr %65, i32 0, i32 3
  %67 = getelementptr inbounds [2 x [2 x [6 x i16]]], ptr %66, i64 0, i64 0
  %68 = load i32, ptr %3, align 4
  %69 = sext i32 %68 to i64
  %70 = getelementptr inbounds [4 x [2 x [2 x [6 x i16]]]], ptr @av1_default_eob_multi16_cdfs, i64 0, i64 %69
  %71 = getelementptr inbounds [2 x [2 x [6 x i16]]], ptr %70, i64 0, i64 0
  call void @llvm.memcpy.p0.p0.i64(ptr align 2 %67, ptr align 16 %71, i64 48, i1 false)
  %72 = load ptr, ptr %2, align 8
  %73 = getelementptr inbounds nuw %struct.AV1Common, ptr %72, i32 0, i32 38
  %74 = load ptr, ptr %73, align 16
  %75 = getelementptr inbounds nuw %struct.frame_contexts, ptr %74, i32 0, i32 4
  %76 = getelementptr inbounds [2 x [2 x [7 x i16]]], ptr %75, i64 0, i64 0
  %77 = load i32, ptr %3, align 4
  %78 = sext i32 %77 to i64
  %79 = getelementptr inbounds [4 x [2 x [2 x [7 x i16]]]], ptr @av1_default_eob_multi32_cdfs, i64 0, i64 %78
  %80 = getelementptr inbounds [2 x [2 x [7 x i16]]], ptr %79, i64 0, i64 0
  call void @llvm.memcpy.p0.p0.i64(ptr align 2 %76, ptr align 8 %80, i64 56, i1 false)
  %81 = load ptr, ptr %2, align 8
  %82 = getelementptr inbounds nuw %struct.AV1Common, ptr %81, i32 0, i32 38
  %83 = load ptr, ptr %82, align 16
  %84 = getelementptr inbounds nuw %struct.frame_contexts, ptr %83, i32 0, i32 5
  %85 = getelementptr inbounds [2 x [2 x [8 x i16]]], ptr %84, i64 0, i64 0
  %86 = load i32, ptr %3, align 4
  %87 = sext i32 %86 to i64
  %88 = getelementptr inbounds [4 x [2 x [2 x [8 x i16]]]], ptr @av1_default_eob_multi64_cdfs, i64 0, i64 %87
  %89 = getelementptr inbounds [2 x [2 x [8 x i16]]], ptr %88, i64 0, i64 0
  call void @llvm.memcpy.p0.p0.i64(ptr align 2 %85, ptr align 16 %89, i64 64, i1 false)
  %90 = load ptr, ptr %2, align 8
  %91 = getelementptr inbounds nuw %struct.AV1Common, ptr %90, i32 0, i32 38
  %92 = load ptr, ptr %91, align 16
  %93 = getelementptr inbounds nuw %struct.frame_contexts, ptr %92, i32 0, i32 6
  %94 = getelementptr inbounds [2 x [2 x [9 x i16]]], ptr %93, i64 0, i64 0
  %95 = load i32, ptr %3, align 4
  %96 = sext i32 %95 to i64
  %97 = getelementptr inbounds [4 x [2 x [2 x [9 x i16]]]], ptr @av1_default_eob_multi128_cdfs, i64 0, i64 %96
  %98 = getelementptr inbounds [2 x [2 x [9 x i16]]], ptr %97, i64 0, i64 0
  call void @llvm.memcpy.p0.p0.i64(ptr align 2 %94, ptr align 8 %98, i64 72, i1 false)
  %99 = load ptr, ptr %2, align 8
  %100 = getelementptr inbounds nuw %struct.AV1Common, ptr %99, i32 0, i32 38
  %101 = load ptr, ptr %100, align 16
  %102 = getelementptr inbounds nuw %struct.frame_contexts, ptr %101, i32 0, i32 7
  %103 = getelementptr inbounds [2 x [2 x [10 x i16]]], ptr %102, i64 0, i64 0
  %104 = load i32, ptr %3, align 4
  %105 = sext i32 %104 to i64
  %106 = getelementptr inbounds [4 x [2 x [2 x [10 x i16]]]], ptr @av1_default_eob_multi256_cdfs, i64 0, i64 %105
  %107 = getelementptr inbounds [2 x [2 x [10 x i16]]], ptr %106, i64 0, i64 0
  call void @llvm.memcpy.p0.p0.i64(ptr align 2 %103, ptr align 16 %107, i64 80, i1 false)
  %108 = load ptr, ptr %2, align 8
  %109 = getelementptr inbounds nuw %struct.AV1Common, ptr %108, i32 0, i32 38
  %110 = load ptr, ptr %109, align 16
  %111 = getelementptr inbounds nuw %struct.frame_contexts, ptr %110, i32 0, i32 8
  %112 = getelementptr inbounds [2 x [2 x [11 x i16]]], ptr %111, i64 0, i64 0
  %113 = load i32, ptr %3, align 4
  %114 = sext i32 %113 to i64
  %115 = getelementptr inbounds [4 x [2 x [2 x [11 x i16]]]], ptr @av1_default_eob_multi512_cdfs, i64 0, i64 %114
  %116 = getelementptr inbounds [2 x [2 x [11 x i16]]], ptr %115, i64 0, i64 0
  call void @llvm.memcpy.p0.p0.i64(ptr align 2 %112, ptr align 8 %116, i64 88, i1 false)
  %117 = load ptr, ptr %2, align 8
  %118 = getelementptr inbounds nuw %struct.AV1Common, ptr %117, i32 0, i32 38
  %119 = load ptr, ptr %118, align 16
  %120 = getelementptr inbounds nuw %struct.frame_contexts, ptr %119, i32 0, i32 9
  %121 = getelementptr inbounds [2 x [2 x [12 x i16]]], ptr %120, i64 0, i64 0
  %122 = load i32, ptr %3, align 4
  %123 = sext i32 %122 to i64
  %124 = getelementptr inbounds [4 x [2 x [2 x [12 x i16]]]], ptr @av1_default_eob_multi1024_cdfs, i64 0, i64 %123
  %125 = getelementptr inbounds [2 x [2 x [12 x i16]]], ptr %124, i64 0, i64 0
  call void @llvm.memcpy.p0.p0.i64(ptr align 2 %121, ptr align 16 %125, i64 96, i1 false)
  ret void
}